; Function Attrs: nounwind uwtable
define hidden zeroext range(i8 0, 2) i8 @isSafeForJNICalls(ptr noundef %0) local_unnamed_addr #1 {
  %2 = load ptr, ptr %0, align 8
  %3 = getelementptr inbounds i8, ptr %2, i64 1824
  %4 = load ptr, ptr %3, align 8
  %5 = tail call zeroext i8 %4(ptr noundef nonnull %0) #3
  %.not = icmp eq i8 %5, 0
  %6 = zext i1 %.not to i8
  ret i8 %6
}